#include <math.h>
#include <stdio.h>
#include <stdlib.h>
#include <string.h>

int main()
{
 int n,i,j;
 int k=1;
 int a[20000];
 scanf("%d",&n);
 for(i=1;i<=n;i++)
   {
    scanf("%d",&a[i-1]);
     for(j=0;j<=i-1;j++)
      {
       if(i-1==0) {k=k+1; a[0]=a[0];}
             else {
                   if(a[j]==a[i-1]&&j!=i-1) break;
                         else if(a[j]==a[i-1]) {a[k-1]=a[i-1]; k=k+1;}
                  }
      }
    }
   for(i=0;i<=k-3;i++) printf("%d ",a[i]);
   printf("%d",a[k-2]);
 return 0;
}  
                             